target datalayout = "e-m:e-p270:32:32-p271:32:32-p272:64:64-i64:64-i128:128-f80:128-n8:16:32:64-S128"
target triple = "x86_64-pc-linux-gnu"

%struct.jdwpTransportNativeInterface_ = type { ptr, ptr, ptr, ptr, ptr, ptr, ptr, ptr, ptr, ptr, ptr, ptr }
%struct.jdwpPacket = type { %union.anon }
%union.anon = type { %struct.jdwpCmdPacket }
%struct.jdwpCmdPacket = type { i32, i32, i8, i8, i8, ptr }

@transport = internal global ptr null, align 8

; Function Attrs: nounwind uwtable
define hidden i32 @transport_receivePacket(ptr noundef %0) #0 {
  %2 = alloca i32, align 4
  %3 = alloca ptr, align 8
  %4 = alloca i32, align 4
  store ptr %0, ptr %3, align 8
  %5 = load ptr, ptr @transport, align 8
  %6 = load ptr, ptr %5, align 8
  %7 = getelementptr inbounds %struct.jdwpTransportNativeInterface_, ptr %6, i32 0, i32 8
  %8 = load ptr, ptr %7, align 8
  %9 = load ptr, ptr @transport, align 8
  %10 = load ptr, ptr %3, align 8
  %11 = call i32 %8(ptr noundef %9, ptr noundef %10)
  store i32 %11, ptr %4, align 4
  %12 = load i32, ptr %4, align 4
  %13 = icmp ne i32 %12, 0
  br i1 %13, label %14, label %29

14:                                               ; preds = %1
  %15 = load ptr, ptr @transport, align 8
  %16 = load ptr, ptr %15, align 8
  %17 = getelementptr inbounds %struct.jdwpTransportNativeInterface_, ptr %16, i32 0, i32 6
  %18 = load ptr, ptr %17, align 8
  %19 = load ptr, ptr @transport, align 8
  %20 = call zeroext i8 %18(ptr noundef %19)
  %21 = icmp ne i8 %20, 0
  br i1 %21, label %26, label %22

22:                                               ; preds = %14
  %23 = load ptr, ptr %3, align 8
  %24 = getelementptr inbounds %struct.jdwpPacket, ptr %23, i32 0, i32 0
  %25 = getelementptr inbounds %struct.jdwpCmdPacket, ptr %24, i32 0, i32 0
  store i32 0, ptr %25, align 8
  store i32 0, ptr %2, align 4
  br label %30

26:                                               ; preds = %14
  %27 = load ptr, ptr @transport, align 8
  %28 = load i32, ptr %4, align 4
  call void @printLastError(ptr noundef %27, i32 noundef %28)
  store i32 -1, ptr %2, align 4
  br label %30

29:                                               ; preds = %1
  store i32 0, ptr %2, align 4
  br label %30

30:                                               ; preds = %29, %26, %22
  %31 = load i32, ptr %2, align 4
  ret i32 %31
}