; Function Attrs: nounwind uwtable
define hidden range(i32 -1, 1) i32 @transport_receivePacket(ptr noundef %0) local_unnamed_addr #0 {
  %2 = load ptr, ptr @transport, align 8
  %3 = load ptr, ptr %2, align 8
  %4 = getelementptr inbounds i8, ptr %3, i64 64
  %5 = load ptr, ptr %4, align 8
  %6 = tail call i32 %5(ptr noundef nonnull %2, ptr noundef %0) #6
  %.not = icmp eq i32 %6, 0
  br i1 %.not, label %16, label %7

7:                                                ; preds = %1
  %8 = load ptr, ptr @transport, align 8
  %9 = load ptr, ptr %8, align 8
  %10 = getelementptr inbounds i8, ptr %9, i64 48
  %11 = load ptr, ptr %10, align 8
  %12 = tail call zeroext i8 %11(ptr noundef nonnull %8) #6
  %.not5 = icmp eq i8 %12, 0
  br i1 %.not5, label %13, label %14

13:                                               ; preds = %7
  store i32 0, ptr %0, align 8
  br label %16

14:                                               ; preds = %7
  %15 = load ptr, ptr @transport, align 8
  tail call fastcc void @printLastError(ptr noundef %15, i32 noundef %6)
  br label %16

16:                                               ; preds = %1, %14, %13
  %.0 = phi i32 [ -1, %14 ], [ 0, %13 ], [ 0, %1 ]
  ret i32 %.0
}